; Function Attrs: mustprogress uwtable
define hidden void @_ZNK18OpenImageIO_v2_6_03pvt17TextureSystemImpl12append_errorENS_17basic_string_viewIcSt11char_traitsIcEEE(ptr noundef nonnull align 8 dereferenceable(184) %this, ptr nocapture noundef %message) local_unnamed_addr #5 align 2 personality ptr @__gxx_personality_v0 {
entry:
  %agg.tmp.i = alloca %"struct.std::__cxx11::basic_string<char>::__sv_wrapper", align 8
  %ref.tmp = alloca %"class.std::__cxx11::basic_string", align 8
  %ref.tmp18 = alloca %"class.std::allocator.5", align 1
  %m_len.i = getelementptr inbounds i8, ptr %message, i64 8
  %0 = load i64, ptr %m_len.i, align 8
  %tobool.not = icmp eq i64 %0, 0
  br i1 %tobool.not, label %if.end, label %land.lhs.true

land.lhs.true:                                    ; preds = %entry
  %1 = load ptr, ptr %message, align 8
  %2 = getelementptr i8, ptr %1, i64 %0
  %arrayidx.i = getelementptr i8, ptr %2, i64 -1
  %3 = load i8, ptr %arrayidx.i, align 1
  %cmp = icmp eq i8 %3, 10
  br i1 %cmp, label %if.then, label %if.end

if.then:                                          ; preds = %land.lhs.true
  %sub.i9 = add i64 %0, -1
  store i64 %sub.i9, ptr %m_len.i, align 8
  br label %if.end

if.end:                                           ; preds = %if.then, %land.lhs.true, %entry
  %m_errormessage = getelementptr inbounds i8, ptr %this, i64 160
  %call.i = tail call noundef ptr @_ZN5boost6detail12get_tss_dataEPKv(ptr noundef nonnull %m_errormessage)
  %tobool4.not = icmp eq ptr %call.i, null
  br i1 %tobool4.not, label %if.then5, label %if.end8

if.then5:                                         ; preds = %if.end
  %call6 = tail call noalias noundef nonnull dereferenceable(32) ptr @_Znwm(i64 noundef 32) #32
  tail call void @_ZNSt7__cxx1112basic_stringIcSt11char_traitsIcESaIcEEC1Ev(ptr noundef nonnull align 8 dereferenceable(32) %call6) #30
  %call.i.i = tail call noundef ptr @_ZN5boost6detail12get_tss_dataEPKv(ptr noundef nonnull %m_errormessage)
  %cmp.not.i = icmp eq ptr %call.i.i, %call6
  br i1 %cmp.not.i, label %if.end8, label %if.then.i

if.then.i:                                        ; preds = %if.then5
  %4 = load ptr, ptr %m_errormessage, align 8
  tail call void @_ZN5boost6detail12set_tss_dataEPKvPFvPFvPvES3_ES5_S3_b(ptr noundef nonnull %m_errormessage, ptr noundef nonnull @_ZN5boost19thread_specific_ptrINSt7__cxx1112basic_stringIcSt11char_traitsIcESaIcEEEE14cleanup_callerEPFvPvES8_, ptr noundef %4, ptr noundef nonnull %call6, i1 noundef zeroext true)
  br label %if.end8

if.end8:                                          ; preds = %if.then.i, %if.then5, %if.end
  %errptr.0 = phi ptr [ %call.i, %if.end ], [ %call6, %if.then5 ], [ %call6, %if.then.i ]
  %call9 = tail call noundef i64 @_ZNKSt7__cxx1112basic_stringIcSt11char_traitsIcESaIcEE4sizeEv(ptr noundef nonnull align 8 dereferenceable(32) %errptr.0) #30
  %tobool10.not = icmp eq i64 %call9, 0
  br i1 %tobool10.not, label %if.end17, label %land.lhs.true11

land.lhs.true11:                                  ; preds = %if.end8
  %call12 = tail call noundef nonnull align 1 dereferenceable(1) ptr @_ZNSt7__cxx1112basic_stringIcSt11char_traitsIcESaIcEE4backEv(ptr noundef nonnull align 8 dereferenceable(32) %errptr.0) #30
  %5 = load i8, ptr %call12, align 1
  %cmp14.not = icmp eq i8 %5, 10
  br i1 %cmp14.not, label %if.end17, label %if.then15

if.then15:                                        ; preds = %land.lhs.true11
  %call16 = tail call noundef nonnull align 8 dereferenceable(32) ptr @_ZNSt7__cxx1112basic_stringIcSt11char_traitsIcESaIcEEpLEc(ptr noundef nonnull align 8 dereferenceable(32) %errptr.0, i8 noundef signext 10)
  br label %if.end17

if.end17:                                         ; preds = %if.then15, %land.lhs.true11, %if.end8
  call void @_ZNSaIcEC1Ev(ptr noundef nonnull align 1 dereferenceable(1) %ref.tmp18) #30
  call void @llvm.lifetime.start.p0(i64 16, ptr nonnull %agg.tmp.i)
  %6 = load ptr, ptr %message, align 8
  %7 = load i64, ptr %m_len.i, align 8
  %call4.i = call { i64, ptr } @_ZNSt7__cxx1112basic_stringIcSt11char_traitsIcESaIcEE17_S_to_string_viewESt17basic_string_viewIcS2_E(i64 %7, ptr %6) #30
  %8 = extractvalue { i64, ptr } %call4.i, 0
  %9 = extractvalue { i64, ptr } %call4.i, 1
  call void @_ZNSt7__cxx1112basic_stringIcSt11char_traitsIcESaIcEE12__sv_wrapperC1ESt17basic_string_viewIcS2_E(ptr noundef nonnull align 8 dereferenceable(16) %agg.tmp.i, i64 %8, ptr %9) #30
  %10 = load i64, ptr %agg.tmp.i, align 8
  %11 = getelementptr inbounds i8, ptr %agg.tmp.i, i64 8
  %12 = load ptr, ptr %11, align 8
  invoke void @_ZNSt7__cxx1112basic_stringIcSt11char_traitsIcESaIcEEC2ENS4_12__sv_wrapperERKS3_(ptr noundef nonnull align 8 dereferenceable(32) %ref.tmp, i64 %10, ptr %12, ptr noundef nonnull align 1 dereferenceable(1) %ref.tmp18)
          to label %invoke.cont unwind label %lpad

invoke.cont:                                      ; preds = %if.end17
  call void @llvm.lifetime.end.p0(i64 16, ptr nonnull %agg.tmp.i)
  %call21 = invoke noundef nonnull align 8 dereferenceable(32) ptr @_ZNSt7__cxx1112basic_stringIcSt11char_traitsIcESaIcEEpLERKS4_(ptr noundef nonnull align 8 dereferenceable(32) %errptr.0, ptr noundef nonnull align 8 dereferenceable(32) %ref.tmp)
          to label %invoke.cont20 unwind label %lpad19

invoke.cont20:                                    ; preds = %invoke.cont
  call void @_ZNSt7__cxx1112basic_stringIcSt11char_traitsIcESaIcEED1Ev(ptr noundef nonnull align 8 dereferenceable(32) %ref.tmp) #30
  call void @_ZNSaIcED1Ev(ptr noundef nonnull align 1 dereferenceable(1) %ref.tmp18) #30
  ret void

lpad:                                             ; preds = %if.end17
  %13 = landingpad { ptr, i32 }
          cleanup
  br label %ehcleanup

lpad19:                                           ; preds = %invoke.cont
  %14 = landingpad { ptr, i32 }
          cleanup
  call void @_ZNSt7__cxx1112basic_stringIcSt11char_traitsIcESaIcEED1Ev(ptr noundef nonnull align 8 dereferenceable(32) %ref.tmp) #30
  br label %ehcleanup

ehcleanup:                                        ; preds = %lpad19, %lpad
  %.pn = phi { ptr, i32 } [ %14, %lpad19 ], [ %13, %lpad ]
  call void @_ZNSaIcED1Ev(ptr noundef nonnull align 1 dereferenceable(1) %ref.tmp18) #30
  resume { ptr, i32 } %.pn
}